#include <math.h>
#include <stdio.h>
#include <stdlib.h>
#include <string.h>

int main()
{
	int n,i,sum=0;
	scanf("%d",&n);
	for(i=1;i<=n;i++)
{
	if(i%7!=0)
	if(i%10!=7&&i/10%10!=7)
			sum+=i*i;
		}
		printf("%d",sum);
		getchar();
		getchar();
		return 0;
	}
