; ModuleID = 'source-C-CXX/29/165.c'
source_filename = "source-C-CXX/29/165.c"
target datalayout = "e-m:e-p270:32:32-p271:32:32-p272:64:64-i64:64-f80:128-n8:16:32:64-S128"
target triple = "x86_64-pc-linux-gnu"

%struct._IO_FILE = type { i32, i8*, i8*, i8*, i8*, i8*, i8*, i8*, i8*, i8*, i8*, i8*, %struct._IO_marker*, %struct._IO_FILE*, i32, i32, i64, i16, i8, [1 x i8], i8*, i64, %struct._IO_codecvt*, %struct._IO_wide_data*, %struct._IO_FILE*, i8*, i64, i32, [20 x i8] }
%struct._IO_marker = type opaque
%struct._IO_codecvt = type opaque
%struct._IO_wide_data = type opaque

@.str = private unnamed_addr constant [3 x i8] c"%d\00", align 1
@stdin = external local_unnamed_addr global %struct._IO_FILE*, align 8

; Function Attrs: nofree nounwind sspstrong uwtable
define dso_local i32 @main() local_unnamed_addr #0 {
  %1 = alloca i32, align 4
  %2 = bitcast i32* %1 to i8*
  call void @llvm.lifetime.start.p0i8(i64 4, i8* nonnull %2) #4
  %3 = call i32 (i8*, ...) @__isoc99_scanf(i8* getelementptr inbounds ([3 x i8], [3 x i8]* @.str, i64 0, i64 0), i32* nonnull %1)
  %4 = load i32, i32* %1, align 4, !tbaa !5
  %5 = icmp slt i32 %4, 1
  br i1 %5, label %78, label %6

6:                                                ; preds = %0
  %7 = icmp ult i32 %4, 8
  br i1 %7, label %58, label %8

8:                                                ; preds = %6
  %9 = and i32 %4, -8
  %10 = or i32 %9, 1
  br label %11

11:                                               ; preds = %11, %8
  %12 = phi i32 [ 0, %8 ], [ %51, %11 ]
  %13 = phi <4 x i32> [ zeroinitializer, %8 ], [ %47, %11 ]
  %14 = phi <4 x i32> [ zeroinitializer, %8 ], [ %50, %11 ]
  %15 = phi <4 x i32> [ <i32 1, i32 2, i32 3, i32 4>, %8 ], [ %52, %11 ]
  %16 = add <4 x i32> %15, <i32 4, i32 4, i32 4, i32 4>
  %17 = urem <4 x i32> %15, <i32 7, i32 7, i32 7, i32 7>
  %18 = urem <4 x i32> %16, <i32 7, i32 7, i32 7, i32 7>
  %19 = icmp eq <4 x i32> %17, zeroinitializer
  %20 = icmp eq <4 x i32> %18, zeroinitializer
  %21 = freeze <4 x i32> %15
  %22 = udiv <4 x i32> %21, <i32 10, i32 10, i32 10, i32 10>
  %23 = mul <4 x i32> %22, <i32 10, i32 10, i32 10, i32 10>
  %24 = sub <4 x i32> %21, %23
  %25 = freeze <4 x i32> %16
  %26 = udiv <4 x i32> %25, <i32 10, i32 10, i32 10, i32 10>
  %27 = mul <4 x i32> %26, <i32 10, i32 10, i32 10, i32 10>
  %28 = sub <4 x i32> %25, %27
  %29 = icmp eq <4 x i32> %24, <i32 7, i32 7, i32 7, i32 7>
  %30 = icmp eq <4 x i32> %28, <i32 7, i32 7, i32 7, i32 7>
  %31 = or <4 x i1> %19, %29
  %32 = or <4 x i1> %20, %30
  %33 = urem <4 x i32> %22, <i32 10, i32 10, i32 10, i32 10>
  %34 = urem <4 x i32> %26, <i32 10, i32 10, i32 10, i32 10>
  %35 = icmp eq <4 x i32> %33, <i32 7, i32 7, i32 7, i32 7>
  %36 = icmp eq <4 x i32> %34, <i32 7, i32 7, i32 7, i32 7>
  %37 = mul nsw <4 x i32> %15, %15
  %38 = mul nsw <4 x i32> %16, %16
  %39 = or <4 x i1> %19, %29
  %40 = xor <4 x i1> %39, <i1 true, i1 true, i1 true, i1 true>
  %41 = or <4 x i1> %20, %30
  %42 = xor <4 x i1> %41, <i1 true, i1 true, i1 true, i1 true>
  %43 = select <4 x i1> %40, <4 x i1> %35, <4 x i1> zeroinitializer
  %44 = select <4 x i1> %42, <4 x i1> %36, <4 x i1> zeroinitializer
  %45 = select <4 x i1> %31, <4 x i1> <i1 true, i1 true, i1 true, i1 true>, <4 x i1> %43
  %46 = select <4 x i1> %45, <4 x i32> zeroinitializer, <4 x i32> %37
  %47 = add <4 x i32> %13, %46
  %48 = select <4 x i1> %32, <4 x i1> <i1 true, i1 true, i1 true, i1 true>, <4 x i1> %44
  %49 = select <4 x i1> %48, <4 x i32> zeroinitializer, <4 x i32> %38
  %50 = add <4 x i32> %14, %49
  %51 = add nuw i32 %12, 8
  %52 = add <4 x i32> %15, <i32 8, i32 8, i32 8, i32 8>
  %53 = icmp eq i32 %51, %9
  br i1 %53, label %54, label %11, !llvm.loop !9

54:                                               ; preds = %11
  %55 = add <4 x i32> %50, %47
  %56 = call i32 @llvm.vector.reduce.add.v4i32(<4 x i32> %55)
  %57 = icmp eq i32 %4, %9
  br i1 %57, label %78, label %58

58:                                               ; preds = %6, %54
  %59 = phi i32 [ 0, %6 ], [ %56, %54 ]
  %60 = phi i32 [ 1, %6 ], [ %10, %54 ]
  br label %61

61:                                               ; preds = %58, %61
  %62 = phi i32 [ %75, %61 ], [ %59, %58 ]
  %63 = phi i32 [ %76, %61 ], [ %60, %58 ]
  %64 = urem i32 %63, 7
  %65 = icmp eq i32 %64, 0
  %66 = urem i32 %63, 10
  %67 = udiv i32 %63, 10
  %68 = icmp eq i32 %66, 7
  %69 = or i1 %65, %68
  %70 = urem i32 %67, 10
  %71 = icmp eq i32 %70, 7
  %72 = select i1 %69, i1 true, i1 %71
  %73 = mul nsw i32 %63, %63
  %74 = add nsw i32 %62, %73
  %75 = select i1 %72, i32 %62, i32 %74
  %76 = add nuw i32 %63, 1
  %77 = icmp eq i32 %63, %4
  br i1 %77, label %78, label %61, !llvm.loop !12

78:                                               ; preds = %61, %54, %0
  %79 = phi i32 [ 0, %0 ], [ %56, %54 ], [ %75, %61 ]
  %80 = call i32 (i8*, ...) @printf(i8* nonnull dereferenceable(1) getelementptr inbounds ([3 x i8], [3 x i8]* @.str, i64 0, i64 0), i32 %79)
  %81 = load %struct._IO_FILE*, %struct._IO_FILE** @stdin, align 8, !tbaa !14
  %82 = call i32 @getc(%struct._IO_FILE* %81) #4
  %83 = load %struct._IO_FILE*, %struct._IO_FILE** @stdin, align 8, !tbaa !14
  %84 = call i32 @getc(%struct._IO_FILE* %83) #4
  call void @llvm.lifetime.end.p0i8(i64 4, i8* nonnull %2) #4
  ret i32 0
}

; Function Attrs: argmemonly mustprogress nofree nosync nounwind willreturn
declare void @llvm.lifetime.start.p0i8(i64 immarg, i8* nocapture) #1

; Function Attrs: nofree nounwind
declare noundef i32 @__isoc99_scanf(i8* nocapture noundef readonly, ...) local_unnamed_addr #2

; Function Attrs: nofree nounwind
declare noundef i32 @printf(i8* nocapture noundef readonly, ...) local_unnamed_addr #2

; Function Attrs: argmemonly mustprogress nofree nosync nounwind willreturn
declare void @llvm.lifetime.end.p0i8(i64 immarg, i8* nocapture) #1

; Function Attrs: nofree nounwind
declare noundef i32 @getc(%struct._IO_FILE* nocapture noundef) local_unnamed_addr #2

; Function Attrs: nofree nosync nounwind readnone willreturn
declare i32 @llvm.vector.reduce.add.v4i32(<4 x i32>) #3


!llvm.module.flags = !{!0, !1, !2, !3}
!llvm.ident = !{!4}

!0 = !{i32 1, !"wchar_size", i32 4}
!1 = !{i32 7, !"PIC Level", i32 2}
!2 = !{i32 7, !"PIE Level", i32 2}
!3 = !{i32 7, !"uwtable", i32 1}
!4 = !{!"clang version 13.0.0"}
!5 = !{!6, !6, i64 0}
!6 = !{!"int", !7, i64 0}
!7 = !{!"omnipotent char", !8, i64 0}
!8 = !{!"Simple C/C++ TBAA"}
!9 = distinct !{!9, !10, !11}
!10 = !{!"llvm.loop.mustprogress"}
!11 = !{!"llvm.loop.isvectorized", i32 1}
!12 = distinct !{!12, !10, !13, !11}
!13 = !{!"llvm.loop.unroll.runtime.disable"}
!14 = !{!15, !15, i64 0}
!15 = !{!"any pointer", !7, i64 0}
